target datalayout = "e-m:e-p270:32:32-p271:32:32-p272:64:64-i64:64-i128:128-f80:128-n8:16:32:64-S128"
target triple = "x86_64-pc-linux-gnu"

%struct.GetBitContext = type { ptr, ptr, i32, i32, i32 }
%struct.CBSVP8BoolDecoder = type { ptr, i8, i8, i8 }

@.str = private unnamed_addr constant [30 x i8] c"Assertion %s failed at %s:%d\0A\00", align 1
@.str.3 = private unnamed_addr constant [21 x i8] c"libavcodec/cbs_vp8.c\00", align 1
@.str.49 = private unnamed_addr constant [20 x i8] c"decoder->count == 8\00", align 1
@.str.50 = private unnamed_addr constant [20 x i8] c"decoder->count <= 8\00", align 1

; Function Attrs: alwaysinline nounwind willreturn memory(none) uwtable
define internal i32 @av_bswap32(i32 noundef %0) #7 {
  %2 = alloca i32, align 4
  store i32 %0, ptr %2, align 4, !tbaa !11
  %3 = load i32, ptr %2, align 4, !tbaa !11
  %4 = shl i32 %3, 8
  %5 = and i32 %4, 65280
  %6 = load i32, ptr %2, align 4, !tbaa !11
  %7 = lshr i32 %6, 8
  %8 = and i32 %7, 255
  %9 = or i32 %5, %8
  %10 = shl i32 %9, 16
  %11 = load i32, ptr %2, align 4, !tbaa !11
  %12 = lshr i32 %11, 16
  %13 = shl i32 %12, 8
  %14 = and i32 %13, 65280
  %15 = load i32, ptr %2, align 4, !tbaa !11
  %16 = lshr i32 %15, 16
  %17 = lshr i32 %16, 8
  %18 = and i32 %17, 255
  %19 = or i32 %14, %18
  %20 = or i32 %10, %19
  ret i32 %20
}

; Function Attrs: inlinehint nounwind uwtable
define internal i32 @get_bits_count(ptr noundef %0) #3 {
  %2 = alloca ptr, align 8
  store ptr %0, ptr %2, align 8, !tbaa !37
  %3 = load ptr, ptr %2, align 8, !tbaa !37
  %4 = getelementptr inbounds nuw %struct.GetBitContext, ptr %3, i32 0, i32 2
  %5 = load i32, ptr %4, align 8, !tbaa !40
  ret i32 %5
}

; Function Attrs: inlinehint nounwind uwtable
define internal i32 @get_bits(ptr noundef %0, i32 noundef %1) #3 {
  %3 = alloca ptr, align 8
  %4 = alloca i32, align 4
  %5 = alloca i32, align 4
  %6 = alloca i32, align 4
  %7 = alloca i32, align 4
  %8 = alloca i32, align 4
  store ptr %0, ptr %3, align 8, !tbaa !37
  store i32 %1, ptr %4, align 4, !tbaa !11
  call void @llvm.lifetime.start.p0(i64 4, ptr %5) #8
  call void @llvm.lifetime.start.p0(i64 4, ptr %6) #8
  %9 = load ptr, ptr %3, align 8, !tbaa !37
  %10 = getelementptr inbounds nuw %struct.GetBitContext, ptr %9, i32 0, i32 2
  %11 = load i32, ptr %10, align 8, !tbaa !40
  store i32 %11, ptr %6, align 4, !tbaa !11
  call void @llvm.lifetime.start.p0(i64 4, ptr %7) #8
  call void @llvm.lifetime.start.p0(i64 4, ptr %8) #8
  %12 = load ptr, ptr %3, align 8, !tbaa !37
  %13 = getelementptr inbounds nuw %struct.GetBitContext, ptr %12, i32 0, i32 4
  %14 = load i32, ptr %13, align 8, !tbaa !51
  store i32 %14, ptr %8, align 4, !tbaa !11
  %15 = load ptr, ptr %3, align 8, !tbaa !37
  %16 = getelementptr inbounds nuw %struct.GetBitContext, ptr %15, i32 0, i32 0
  %17 = load ptr, ptr %16, align 8, !tbaa !49
  %18 = load i32, ptr %6, align 4, !tbaa !11
  %19 = lshr i32 %18, 3
  %20 = zext i32 %19 to i64
  %21 = getelementptr inbounds nuw i8, ptr %17, i64 %20
  %22 = load i32, ptr %21, align 1, !tbaa !72
  %23 = call i32 @av_bswap32(i32 noundef %22) #10
  %24 = load i32, ptr %6, align 4, !tbaa !11
  %25 = and i32 %24, 7
  %26 = shl i32 %23, %25
  %27 = lshr i32 %26, 0
  store i32 %27, ptr %7, align 4, !tbaa !11
  %28 = load i32, ptr %7, align 4, !tbaa !11
  %29 = load i32, ptr %4, align 4, !tbaa !11
  %30 = sub nsw i32 32, %29
  %31 = lshr i32 %28, %30
  store i32 %31, ptr %5, align 4, !tbaa !11
  %32 = load i32, ptr %8, align 4, !tbaa !11
  %33 = load i32, ptr %6, align 4, !tbaa !11
  %34 = load i32, ptr %4, align 4, !tbaa !11
  %35 = add i32 %33, %34
  %36 = icmp ugt i32 %32, %35
  br i1 %36, label %37, label %41

37:                                               ; preds = %2
  %38 = load i32, ptr %6, align 4, !tbaa !11
  %39 = load i32, ptr %4, align 4, !tbaa !11
  %40 = add i32 %38, %39
  br label %43

41:                                               ; preds = %2
  %42 = load i32, ptr %8, align 4, !tbaa !11
  br label %43

43:                                               ; preds = %41, %37
  %44 = phi i32 [ %40, %37 ], [ %42, %41 ]
  store i32 %44, ptr %6, align 4, !tbaa !11
  %45 = load i32, ptr %6, align 4, !tbaa !11
  %46 = load ptr, ptr %3, align 8, !tbaa !37
  %47 = getelementptr inbounds nuw %struct.GetBitContext, ptr %46, i32 0, i32 2
  store i32 %45, ptr %47, align 8, !tbaa !40
  %48 = load i32, ptr %5, align 4, !tbaa !11
  call void @llvm.lifetime.end.p0(i64 4, ptr %8) #8
  call void @llvm.lifetime.end.p0(i64 4, ptr %7) #8
  call void @llvm.lifetime.end.p0(i64 4, ptr %6) #8
  call void @llvm.lifetime.end.p0(i64 4, ptr %5) #8
  ret i32 %48
}

; Function Attrs: inlinehint nounwind uwtable
define internal i32 @get_bits_left(ptr noundef %0) #3 {
  %2 = alloca ptr, align 8
  store ptr %0, ptr %2, align 8, !tbaa !37
  %3 = load ptr, ptr %2, align 8, !tbaa !37
  %4 = getelementptr inbounds nuw %struct.GetBitContext, ptr %3, i32 0, i32 3
  %5 = load i32, ptr %4, align 4, !tbaa !50
  %6 = load ptr, ptr %2, align 8, !tbaa !37
  %7 = call i32 @get_bits_count(ptr noundef %6)
  %8 = sub nsw i32 %5, %7
  ret i32 %8
}

; Function Attrs: nounwind uwtable
define internal zeroext i1 @cbs_vp8_bool_decoder_fill_value(ptr noundef %0) #0 {
  %2 = alloca i1, align 1
  %3 = alloca ptr, align 8
  %4 = alloca i32, align 4
  %5 = alloca i32, align 4
  store ptr %0, ptr %3, align 8, !tbaa !42
  call void @llvm.lifetime.start.p0(i64 4, ptr %4) #8
  %6 = load ptr, ptr %3, align 8, !tbaa !42
  %7 = getelementptr inbounds nuw %struct.CBSVP8BoolDecoder, ptr %6, i32 0, i32 3
  %8 = load i8, ptr %7, align 2, !tbaa !48
  %9 = zext i8 %8 to i32
  %10 = sub nsw i32 8, %9
  store i32 %10, ptr %4, align 4, !tbaa !11
  br label %11

11:                                               ; preds = %1
  %12 = load ptr, ptr %3, align 8, !tbaa !42
  %13 = getelementptr inbounds nuw %struct.CBSVP8BoolDecoder, ptr %12, i32 0, i32 3
  %14 = load i8, ptr %13, align 2, !tbaa !48
  %15 = zext i8 %14 to i32
  %16 = icmp sle i32 %15, 8
  br i1 %16, label %18, label %17

17:                                               ; preds = %11
  call void (ptr, i32, ptr, ...) @av_log(ptr noundef null, i32 noundef 0, ptr noundef @.str, ptr noundef @.str.50, ptr noundef @.str.3, i32 noundef 61)
  call void @abort() #9
  unreachable

18:                                               ; preds = %11
  br label %19

19:                                               ; preds = %18
  br label %20

20:                                               ; preds = %19
  %21 = load ptr, ptr %3, align 8, !tbaa !42
  %22 = getelementptr inbounds nuw %struct.CBSVP8BoolDecoder, ptr %21, i32 0, i32 3
  %23 = load i8, ptr %22, align 2, !tbaa !48
  %24 = zext i8 %23 to i32
  %25 = icmp eq i32 %24, 8
  br i1 %25, label %26, label %27

26:                                               ; preds = %20
  store i1 true, ptr %2, align 1
  store i32 1, ptr %5, align 4
  br label %59

27:                                               ; preds = %20
  %28 = load ptr, ptr %3, align 8, !tbaa !42
  %29 = getelementptr inbounds nuw %struct.CBSVP8BoolDecoder, ptr %28, i32 0, i32 0
  %30 = load ptr, ptr %29, align 8, !tbaa !44
  %31 = call i32 @get_bits_left(ptr noundef %30)
  %32 = load i32, ptr %4, align 4, !tbaa !11
  %33 = icmp sge i32 %31, %32
  br i1 %33, label %34, label %53

34:                                               ; preds = %27
  %35 = load ptr, ptr %3, align 8, !tbaa !42
  %36 = getelementptr inbounds nuw %struct.CBSVP8BoolDecoder, ptr %35, i32 0, i32 0
  %37 = load ptr, ptr %36, align 8, !tbaa !44
  %38 = load i32, ptr %4, align 4, !tbaa !11
  %39 = call i32 @get_bits(ptr noundef %37, i32 noundef %38)
  %40 = load ptr, ptr %3, align 8, !tbaa !42
  %41 = getelementptr inbounds nuw %struct.CBSVP8BoolDecoder, ptr %40, i32 0, i32 1
  %42 = load i8, ptr %41, align 8, !tbaa !46
  %43 = zext i8 %42 to i32
  %44 = or i32 %43, %39
  %45 = trunc i32 %44 to i8
  store i8 %45, ptr %41, align 8, !tbaa !46
  %46 = load i32, ptr %4, align 4, !tbaa !11
  %47 = load ptr, ptr %3, align 8, !tbaa !42
  %48 = getelementptr inbounds nuw %struct.CBSVP8BoolDecoder, ptr %47, i32 0, i32 3
  %49 = load i8, ptr %48, align 2, !tbaa !48
  %50 = zext i8 %49 to i32
  %51 = add nsw i32 %50, %46
  %52 = trunc i32 %51 to i8
  store i8 %52, ptr %48, align 2, !tbaa !48
  br label %53

53:                                               ; preds = %34, %27
  %54 = load ptr, ptr %3, align 8, !tbaa !42
  %55 = getelementptr inbounds nuw %struct.CBSVP8BoolDecoder, ptr %54, i32 0, i32 3
  %56 = load i8, ptr %55, align 2, !tbaa !48
  %57 = zext i8 %56 to i32
  %58 = icmp eq i32 %57, 8
  store i1 %58, ptr %2, align 1
  store i32 1, ptr %5, align 4
  br label %59

59:                                               ; preds = %53, %26
  call void @llvm.lifetime.end.p0(i64 4, ptr %4) #8
  %60 = load i1, ptr %2, align 1
  ret i1 %60
}

; Function Attrs: nounwind uwtable
define internal i32 @cbs_vp8_bool_decoder_read_bool(ptr noundef %0, i8 noundef zeroext %1, ptr noundef %2) #0 {
  %4 = alloca i32, align 4
  %5 = alloca ptr, align 8
  %6 = alloca i8, align 1
  %7 = alloca ptr, align 8
  %8 = alloca i8, align 1
  %9 = alloca i32, align 4
  store ptr %0, ptr %5, align 8, !tbaa !42
  store i8 %1, ptr %6, align 1, !tbaa !72
  store ptr %2, ptr %7, align 8, !tbaa !39
  call void @llvm.lifetime.start.p0(i64 1, ptr %8) #8
  %10 = load ptr, ptr %5, align 8, !tbaa !42
  %11 = getelementptr inbounds nuw %struct.CBSVP8BoolDecoder, ptr %10, i32 0, i32 2
  %12 = load i8, ptr %11, align 1, !tbaa !47
  %13 = zext i8 %12 to i32
  %14 = sub nsw i32 %13, 1
  %15 = load i8, ptr %6, align 1, !tbaa !72
  %16 = zext i8 %15 to i32
  %17 = mul nsw i32 %14, %16
  %18 = ashr i32 %17, 8
  %19 = add nsw i32 1, %18
  %20 = trunc i32 %19 to i8
  store i8 %20, ptr %8, align 1, !tbaa !72
  %21 = load ptr, ptr %5, align 8, !tbaa !42
  %22 = call zeroext i1 @cbs_vp8_bool_decoder_fill_value(ptr noundef %21)
  br i1 %22, label %24, label %23

23:                                               ; preds = %3
  store i32 -1094995529, ptr %4, align 4
  store i32 1, ptr %9, align 4
  br label %90

24:                                               ; preds = %3
  br label %25

25:                                               ; preds = %24
  %26 = load ptr, ptr %5, align 8, !tbaa !42
  %27 = getelementptr inbounds nuw %struct.CBSVP8BoolDecoder, ptr %26, i32 0, i32 3
  %28 = load i8, ptr %27, align 2, !tbaa !48
  %29 = zext i8 %28 to i32
  %30 = icmp eq i32 %29, 8
  br i1 %30, label %32, label %31

31:                                               ; preds = %25
  call void (ptr, i32, ptr, ...) @av_log(ptr noundef null, i32 noundef 0, ptr noundef @.str, ptr noundef @.str.49, ptr noundef @.str.3, i32 noundef 83)
  call void @abort() #9
  unreachable

32:                                               ; preds = %25
  br label %33

33:                                               ; preds = %32
  br label %34

34:                                               ; preds = %33
  %35 = load ptr, ptr %5, align 8, !tbaa !42
  %36 = getelementptr inbounds nuw %struct.CBSVP8BoolDecoder, ptr %35, i32 0, i32 1
  %37 = load i8, ptr %36, align 8, !tbaa !46
  %38 = zext i8 %37 to i32
  %39 = load i8, ptr %8, align 1, !tbaa !72
  %40 = zext i8 %39 to i32
  %41 = icmp sge i32 %38, %40
  br i1 %41, label %42, label %60

42:                                               ; preds = %34
  %43 = load ptr, ptr %7, align 8, !tbaa !39
  store i8 1, ptr %43, align 1, !tbaa !72
  %44 = load i8, ptr %8, align 1, !tbaa !72
  %45 = zext i8 %44 to i32
  %46 = load ptr, ptr %5, align 8, !tbaa !42
  %47 = getelementptr inbounds nuw %struct.CBSVP8BoolDecoder, ptr %46, i32 0, i32 2
  %48 = load i8, ptr %47, align 1, !tbaa !47
  %49 = zext i8 %48 to i32
  %50 = sub nsw i32 %49, %45
  %51 = trunc i32 %50 to i8
  store i8 %51, ptr %47, align 1, !tbaa !47
  %52 = load i8, ptr %8, align 1, !tbaa !72
  %53 = zext i8 %52 to i32
  %54 = load ptr, ptr %5, align 8, !tbaa !42
  %55 = getelementptr inbounds nuw %struct.CBSVP8BoolDecoder, ptr %54, i32 0, i32 1
  %56 = load i8, ptr %55, align 8, !tbaa !46
  %57 = zext i8 %56 to i32
  %58 = sub nsw i32 %57, %53
  %59 = trunc i32 %58 to i8
  store i8 %59, ptr %55, align 8, !tbaa !46
  br label %65

60:                                               ; preds = %34
  %61 = load ptr, ptr %7, align 8, !tbaa !39
  store i8 0, ptr %61, align 1, !tbaa !72
  %62 = load i8, ptr %8, align 1, !tbaa !72
  %63 = load ptr, ptr %5, align 8, !tbaa !42
  %64 = getelementptr inbounds nuw %struct.CBSVP8BoolDecoder, ptr %63, i32 0, i32 2
  store i8 %62, ptr %64, align 1, !tbaa !47
  br label %65

65:                                               ; preds = %60, %42
  br label %66

66:                                               ; preds = %72, %65
  %67 = load ptr, ptr %5, align 8, !tbaa !42
  %68 = getelementptr inbounds nuw %struct.CBSVP8BoolDecoder, ptr %67, i32 0, i32 2
  %69 = load i8, ptr %68, align 1, !tbaa !47
  %70 = zext i8 %69 to i32
  %71 = icmp slt i32 %70, 128
  br i1 %71, label %72, label %89

72:                                               ; preds = %66
  %73 = load ptr, ptr %5, align 8, !tbaa !42
  %74 = getelementptr inbounds nuw %struct.CBSVP8BoolDecoder, ptr %73, i32 0, i32 1
  %75 = load i8, ptr %74, align 8, !tbaa !46
  %76 = zext i8 %75 to i32
  %77 = shl i32 %76, 1
  %78 = trunc i32 %77 to i8
  store i8 %78, ptr %74, align 8, !tbaa !46
  %79 = load ptr, ptr %5, align 8, !tbaa !42
  %80 = getelementptr inbounds nuw %struct.CBSVP8BoolDecoder, ptr %79, i32 0, i32 2
  %81 = load i8, ptr %80, align 1, !tbaa !47
  %82 = zext i8 %81 to i32
  %83 = shl i32 %82, 1
  %84 = trunc i32 %83 to i8
  store i8 %84, ptr %80, align 1, !tbaa !47
  %85 = load ptr, ptr %5, align 8, !tbaa !42
  %86 = getelementptr inbounds nuw %struct.CBSVP8BoolDecoder, ptr %85, i32 0, i32 3
  %87 = load i8, ptr %86, align 2, !tbaa !48
  %88 = add i8 %87, -1
  store i8 %88, ptr %86, align 2, !tbaa !48
  br label %66, !llvm.loop !130

89:                                               ; preds = %66
  store i32 0, ptr %4, align 4
  store i32 1, ptr %9, align 4
  br label %90

90:                                               ; preds = %89, %23
  call void @llvm.lifetime.end.p0(i64 1, ptr %8) #8
  %91 = load i32, ptr %4, align 4
  ret i32 %91
}