; Function Attrs: nounwind uwtable
define internal fastcc range(i32 -1094995529, 1) i32 @cbs_vp8_bool_decoder_read_bool(ptr noundef nonnull captures(none) %0, i8 noundef zeroext %1, ptr noundef nonnull writeonly captures(none) %2) unnamed_addr #0 {
  %4 = getelementptr inbounds nuw i8, ptr %0, i64 9
  %5 = load i8, ptr %4, align 1, !tbaa !41
  %6 = zext i8 %5 to i16
  %7 = add nsw i16 %6, -1
  %8 = zext i8 %1 to i16
  %9 = mul i16 %7, %8
  %10 = lshr i16 %9, 8
  %11 = trunc nuw i16 %10 to i8
  %12 = add i8 %11, 1
  %13 = getelementptr inbounds nuw i8, ptr %0, i64 10
  %14 = load i8, ptr %13, align 2, !tbaa !42
  %15 = zext i8 %14 to i32
  %16 = sub nsw i32 8, %15
  %17 = icmp ult i8 %14, 9
  br i1 %17, label %19, label %18

18:                                               ; preds = %3
  tail call void (ptr, i32, ptr, ...) @av_log(ptr noundef null, i32 noundef 0, ptr noundef nonnull @.str, ptr noundef nonnull @.str.50, ptr noundef nonnull @.str.3, i32 noundef 61) #7
  tail call void @abort() #8
  unreachable

19:                                               ; preds = %3
  %20 = icmp eq i8 %14, 8
  br i1 %20, label %..thread_crit_edge, label %21

21:                                               ; preds = %19
  %22 = load ptr, ptr %0, align 8, !tbaa !37
  %23 = getelementptr i8, ptr %22, i64 16
  %.val.i = load i32, ptr %23, align 8, !tbaa !25
  %24 = getelementptr i8, ptr %22, i64 20
  %.val13.i = load i32, ptr %24, align 4, !tbaa !22
  %25 = sub nsw i32 %.val13.i, %.val.i
  %.not.i = icmp slt i32 %25, %16
  br i1 %.not.i, label %cbs_vp8_bool_decoder_fill_value.exit.thread20, label %cbs_vp8_bool_decoder_fill_value.exit

cbs_vp8_bool_decoder_fill_value.exit:             ; preds = %21
  %26 = getelementptr inbounds nuw i8, ptr %22, i64 24
  %27 = load i32, ptr %26, align 8, !tbaa !23
  %28 = load ptr, ptr %22, align 8, !tbaa !20
  %29 = lshr i32 %.val.i, 3
  %30 = zext nneg i32 %29 to i64
  %31 = getelementptr inbounds nuw i8, ptr %28, i64 %30
  %32 = load i32, ptr %31, align 1, !tbaa !49
  %33 = tail call i32 @llvm.bswap.i32(i32 %32)
  %34 = and i32 %.val.i, 7
  %35 = shl i32 %33, %34
  %36 = add nuw nsw i32 %15, 24
  %37 = lshr i32 %35, %36
  %38 = add i32 %.val.i, %16
  %39 = tail call i32 @llvm.umin.i32(i32 %27, i32 %38)
  store i32 %39, ptr %23, align 8, !tbaa !25
  %40 = getelementptr inbounds nuw i8, ptr %0, i64 8
  %41 = load i8, ptr %40, align 8, !tbaa !40
  %42 = trunc nuw i32 %37 to i8
  %43 = or i8 %41, %42
  store i8 %43, ptr %40, align 8, !tbaa !40
  %44 = trunc i32 %16 to i8
  %45 = add nsw i8 %14, %44
  store i8 %45, ptr %13, align 2, !tbaa !42
  %46 = icmp eq i8 %45, 8
  br i1 %46, label %.thread, label %cbs_vp8_bool_decoder_fill_value.exit.thread20

..thread_crit_edge:                               ; preds = %19
  %.phi.trans.insert = getelementptr inbounds nuw i8, ptr %0, i64 8
  %.pre = load i8, ptr %.phi.trans.insert, align 8, !tbaa !40
  br label %.thread

.thread:                                          ; preds = %..thread_crit_edge, %cbs_vp8_bool_decoder_fill_value.exit
  %47 = phi i8 [ %.pre, %..thread_crit_edge ], [ %43, %cbs_vp8_bool_decoder_fill_value.exit ]
  %48 = getelementptr inbounds nuw i8, ptr %0, i64 8
  %.not = icmp ult i8 %47, %12
  br i1 %.not, label %54, label %49

49:                                               ; preds = %.thread
  store i8 1, ptr %2, align 1, !tbaa !49
  %50 = load i8, ptr %4, align 1, !tbaa !41
  %51 = sub i8 %50, %12
  %52 = load i8, ptr %48, align 8, !tbaa !40
  %53 = sub i8 %52, %12
  store i8 %53, ptr %48, align 8, !tbaa !40
  br label %55

54:                                               ; preds = %.thread
  store i8 0, ptr %2, align 1, !tbaa !49
  br label %55

55:                                               ; preds = %54, %49
  %.sink = phi i8 [ %12, %54 ], [ %51, %49 ]
  store i8 %.sink, ptr %4, align 1, !tbaa !41
  %56 = icmp sgt i8 %.sink, -1
  br i1 %56, label %.lr.ph, label %cbs_vp8_bool_decoder_fill_value.exit.thread20

.lr.ph:                                           ; preds = %55
  %.promoted = load i8, ptr %48, align 8, !tbaa !40
  %.promoted24 = load i8, ptr %13, align 2, !tbaa !42
  br label %57

57:                                               ; preds = %.lr.ph, %57
  %58 = phi i8 [ %.promoted24, %.lr.ph ], [ %63, %57 ]
  %59 = phi i8 [ %.promoted, %.lr.ph ], [ %61, %57 ]
  %60 = phi i8 [ %.sink, %.lr.ph ], [ %62, %57 ]
  %61 = shl i8 %59, 1
  %62 = shl nuw i8 %60, 1
  %63 = add i8 %58, -1
  %64 = icmp sgt i8 %62, -1
  br i1 %64, label %57, label %.cbs_vp8_bool_decoder_fill_value.exit.thread20.loopexit_crit_edge, !llvm.loop !105

.cbs_vp8_bool_decoder_fill_value.exit.thread20.loopexit_crit_edge: ; preds = %57
  store i8 %61, ptr %48, align 8, !tbaa !40
  store i8 %62, ptr %4, align 1, !tbaa !41
  store i8 %63, ptr %13, align 2, !tbaa !42
  br label %cbs_vp8_bool_decoder_fill_value.exit.thread20

cbs_vp8_bool_decoder_fill_value.exit.thread20:    ; preds = %55, %.cbs_vp8_bool_decoder_fill_value.exit.thread20.loopexit_crit_edge, %21, %cbs_vp8_bool_decoder_fill_value.exit
  %.0 = phi i32 [ -1094995529, %cbs_vp8_bool_decoder_fill_value.exit ], [ -1094995529, %21 ], [ 0, %.cbs_vp8_bool_decoder_fill_value.exit.thread20.loopexit_crit_edge ], [ 0, %55 ]
  ret i32 %.0
}